(dp1
S'failed'
p2
(lp3
S'1'
aS'2'
aS'3'
aS'4'
aS'5'
aS'6'
aS'7'
aS'8'
aS'9'
aS'10'
p4
aS'11'
p5
aS'12'
p6
aS'13'
p7
aS'14'
p8
aS'15'
p9
aS'16'
p10
aS'28'
p11
aS'30'
p12
aS'32'
p13
aS'33'
p14
aS'34'
p15
aS'47'
p16
aS'48'
p17
aS'49'
p18
aS'50'
p19
aS'51'
p20
aS'52'
p21
aS'53'
p22
aS'54'
p23
aS'55'
p24
aS'56'
p25
aS'57'
p26
aS'58'
p27
aS'59'
p28
aS'60'
p29
aS'61'
p30
aS'62'
p31
aS'63'
p32
aS'64'
p33
aS'65'
p34
aS'66'
p35
aS'67'
p36
aS'68'
p37
aS'69'
p38
aS'70'
p39
aS'71'
p40
aS'72'
p41
aS'73'
p42
aS'74'
p43
aS'75'
p44
aS'76'
p45
aS'77'
p46
asS'source_names'
p47
(lp48
S'core'
p49
aS'gh_frespo_integration'
p50
aS'core_splinter_tests'
p51
asS'ids'
p52
(dp53
I1
(S'/home/eahn/www.freedomsponsors.org/djangoproject/core/tests/test_bitcoin.py'
S'core.tests.test_bitcoin'
p54
S'BitcoinAdapterTest.test_get_balance'
tp55
sI2
(S'/home/eahn/www.freedomsponsors.org/djangoproject/core/tests/test_bitcoin.py'
g54
S'BitcoinPaymentTests.test_bitcoin_payment_complete'
tp56
sI3
(S'/home/eahn/www.freedomsponsors.org/djangoproject/core/tests/test_bitcoin.py'
g54
S'BitcoinPaymentTests.test_bitcoin_payment_complete_offer_usd'
tp57
sI4
(S'/home/eahn/www.freedomsponsors.org/djangoproject/core/tests/test_user_views.py'
S'core.tests.test_user_views'
p58
S'TestDeprecatedCoreUserViews.test_edit_user_form'
tp59
sI5
(S'/home/eahn/www.freedomsponsors.org/djangoproject/core/tests/test_user_views.py'
g58
S'TestDeprecatedCoreUserViews.test_list_users'
tp60
sI6
(S'/home/eahn/www.freedomsponsors.org/djangoproject/core/tests/test_user_views.py'
g58
S'TestDeprecatedCoreUserViews.test_view_user'
tp61
sI7
(S'/home/eahn/www.freedomsponsors.org/djangoproject/core/tests/test_user_views.py'
g58
S'TestDeprecatedCoreUserViews.test_view_user_with_slug'
tp62
sI8
(S'/home/eahn/www.freedomsponsors.org/djangoproject/core/tests/test_user_views.py'
g58
S'TestRedirectToUser.test_redirect_after_email_activation'
tp63
sI9
(S'/home/eahn/www.freedomsponsors.org/djangoproject/core/tests/test_user_views.py'
g58
S'TestUserAuthenticatedViews.test_view_edit_form'
tp64
sI10
(S'/home/eahn/www.freedomsponsors.org/djangoproject/core/tests/test_user_views.py'
g58
S'TestUserAuthenticatedViews.test_view_edit_submit'
tp65
sI11
(S'/home/eahn/www.freedomsponsors.org/djangoproject/core/tests/test_user_views.py'
g58
S'TestUserUnauthenticatedViews.test_list_users'
tp66
sI12
(S'/home/eahn/www.freedomsponsors.org/djangoproject/core/tests/test_user_views.py'
g58
S'TestUserUnauthenticatedViews.test_view_edit_form'
tp67
sI13
(S'/home/eahn/www.freedomsponsors.org/djangoproject/core/tests/test_user_views.py'
g58
S'TestUserUnauthenticatedViews.test_view_edit_submit'
tp68
sI14
(S'/home/eahn/www.freedomsponsors.org/djangoproject/core/tests/test_user_views.py'
g58
S'TestUserUnauthenticatedViews.test_view_user'
tp69
sI15
(S'/home/eahn/www.freedomsponsors.org/djangoproject/core/tests/test_user_views.py'
g58
S'TestUserUnauthenticatedViews.test_view_user_with_slug'
tp70
sI16
(S'/home/eahn/www.freedomsponsors.org/djangoproject/core/tests/test_watch_views.py'
S'core.tests.test_watch_views'
S'TestWatchViews.test_watch_unwatch_issue'
tp71
sI17
(S'/home/eahn/www.freedomsponsors.org/djangoproject/core/tests/tests_trackerintegration.py'
S'core.tests.tests_trackerintegration'
p72
S'TrackerUtilsTest.test_ant_bugzilla'
tp73
sI18
(S'/home/eahn/www.freedomsponsors.org/djangoproject/core/tests/tests_trackerintegration.py'
g72
S'TrackerUtilsTest.test_axis_jira'
tp74
sI19
(S'/home/eahn/www.freedomsponsors.org/djangoproject/core/tests/tests_trackerintegration.py'
g72
S'TrackerUtilsTest.test_chromium_googlecode'
tp75
sI20
(S'/home/eahn/www.freedomsponsors.org/djangoproject/core/tests/tests_trackerintegration.py'
g72
S'TrackerUtilsTest.test_coveragepy_bitbucket'
tp76
sI21
(S'/home/eahn/www.freedomsponsors.org/djangoproject/core/tests/tests_trackerintegration.py'
g72
S'TrackerUtilsTest.test_easymock_jira'
tp77
sI22
(S'/home/eahn/www.freedomsponsors.org/djangoproject/core/tests/tests_trackerintegration.py'
g72
S'TrackerUtilsTest.test_gittip_github'
tp78
sI23
(S'/home/eahn/www.freedomsponsors.org/djangoproject/core/tests/tests_trackerintegration.py'
g72
S'TrackerUtilsTest.test_hibernate_jira'
tp79
sI24
(S'/home/eahn/www.freedomsponsors.org/djangoproject/core/tests/tests_trackerintegration.py'
g72
S'TrackerUtilsTest.test_jenkins_jira'
tp80
sI25
(S'/home/eahn/www.freedomsponsors.org/djangoproject/core/tests/tests_trackerintegration.py'
g72
S'TrackerUtilsTest.test_maven_jira'
tp81
sI26
(S'/home/eahn/www.freedomsponsors.org/djangoproject/core/tests/tests_trackerintegration.py'
g72
S'TrackerUtilsTest.test_nowhere'
tp82
sI27
(S'/home/eahn/www.freedomsponsors.org/djangoproject/core/tests/tests_trackerintegration.py'
g72
S'TrackerUtilsTest.test_p2d_jira'
tp83
sI28
(S'/home/eahn/www.freedomsponsors.org/djangoproject/core/views/registration_views.py'
S'core.views.registration_views'
Ntp84
sI29
(S'/home/eahn/www.freedomsponsors.org/djangoproject/core/tests/test_feedback_views.py'
S'core.tests.test_feedback_views'
p85
S'TestDeprecatedCoreFeedbackViews.test_view_feedback'
tp86
sI30
(S'/home/eahn/www.freedomsponsors.org/djangoproject/core/tests/test_feedback_views.py'
g85
S'TestFeedbackViews.test_add_feedback'
tp87
sI31
(S'/home/eahn/www.freedomsponsors.org/djangoproject/core/tests/test_home_views.py'
S'core.tests.test_home_views'
S'TestHomeViews.test_redirect_core_home'
tp88
sI32
(S'/home/eahn/www.freedomsponsors.org/djangoproject/core/tests/test_mail_notifications.py'
S'core.tests.test_mail_notifications'
p89
S'TestMailNotifications.test_should_send_mail_for_adding_or_changing_or_revoking_offer'
tp90
sI33
(S'/home/eahn/www.freedomsponsors.org/djangoproject/core/tests/test_mail_notifications.py'
g89
S'TestMailNotifications.test_should_send_mail_for_new_comments'
tp91
sI34
(S'/home/eahn/www.freedomsponsors.org/djangoproject/core/tests/test_mail_notifications.py'
g89
S'TestMailNotifications.test_should_send_mail_for_starting_or_aborting_or_finishing_work'
tp92
sI35
(S'/home/eahn/www.freedomsponsors.org/djangoproject/core/tests/test_model_entities.py'
S'core.tests.test_model_entities'
p93
S'TestIssue.test_issue_key'
tp94
sI36
(S'/home/eahn/www.freedomsponsors.org/djangoproject/core/tests/test_model_entities.py'
g93
S'TestIssue.test_issue_project'
tp95
sI37
(S'/home/eahn/www.freedomsponsors.org/djangoproject/core/tests/test_model_entities.py'
g93
S'TestIssue.test_issue_title'
tp96
sI38
(S'/home/eahn/www.freedomsponsors.org/djangoproject/core/tests/test_model_entities.py'
g93
S'TestIssue.test_issue_tracker_url'
tp97
sI39
(S'/home/eahn/www.freedomsponsors.org/djangoproject/core/tests/test_model_entities.py'
g93
S'TestIssue.test_issue_user'
tp98
sI40
(S'/home/eahn/www.freedomsponsors.org/djangoproject/core/tests/test_model_entities.py'
g93
S'TestProject.test_project_bugtracking_url'
tp99
sI41
(S'/home/eahn/www.freedomsponsors.org/djangoproject/core/tests/test_model_entities.py'
g93
S'TestProject.test_project_name'
tp100
sI42
(S'/home/eahn/www.freedomsponsors.org/djangoproject/core/tests/test_model_entities.py'
g93
S'TestProject.test_project_url'
tp101
sI43
(S'/home/eahn/www.freedomsponsors.org/djangoproject/core/tests/test_model_entities.py'
g93
S'TestProject.test_project_user'
tp102
sI44
(S'/home/eahn/www.freedomsponsors.org/djangoproject/core/tests/test_model_entities.py'
g93
S'TestUser.test_user_mail'
tp103
sI45
(S'/home/eahn/www.freedomsponsors.org/djangoproject/core/tests/test_model_entities.py'
g93
S'TestUser.test_user_name'
tp104
sI46
(S'/home/eahn/www.freedomsponsors.org/djangoproject/core/tests/test_model_entities.py'
g93
S'TestUser.test_user_pass'
tp105
sI47
(S'/home/eahn/www.freedomsponsors.org/djangoproject/core/tests/test_paypal_services.py'
S'core.tests.test_paypal_services'
p106
S'TestPaypalAPI.test_with_feesPayer_SENDER'
tp107
sI48
(S'/home/eahn/www.freedomsponsors.org/djangoproject/core/tests/test_paypal_services.py'
g106
S'TestPaypalPayment.test_paypal_payment_complete'
tp108
sI49
(S'/home/eahn/www.freedomsponsors.org/djangoproject/core/tests/test_paypal_services.py'
g106
S'TestPaypalPayment.test_paypal_payment_complete_bitcoin_offer'
tp109
sI50
(S'/home/eahn/www.freedomsponsors.org/djangoproject/core/tests/test_paypal_services.py'
g106
S'TestPaypalPayment.test_paypal_payment_complete_bitcoin_offer_brazilian_sponsor'
tp110
sI51
(S'/home/eahn/www.freedomsponsors.org/djangoproject/core/tests/test_paypal_services.py'
g106
S'TestPaypalPayment.test_paypal_payment_complete_brazilian_sponsor'
tp111
sI52
(S'/home/eahn/www.freedomsponsors.org/djangoproject/core/tests/test_project_views.py'
S'core.tests.test_project_views'
Ntp112
sI53
(S'/home/eahn/www.freedomsponsors.org/djangoproject/core/tests/test_registration.py'
S'core.tests.test_registration'
S'TestRegistration.test_get'
tp113
sI54
(S'/home/eahn/www.freedomsponsors.org/djangoproject/core/tests/test_watch_services.py'
S'core.tests.test_watch_services'
S'TestWatchService.test_watch_toggle_issue'
tp114
sI55
(S'/home/eahn/www.freedomsponsors.org/djangoproject/gh_frespo_integration/management/commands/github_sponsorthis.py'
S'gh_frespo_integration.management.commands.github_sponsorthis'
Ntp115
sI56
(S'/home/eahn/www.freedomsponsors.org/djangoproject/gh_frespo_integration/services/github_services.py'
S'gh_frespo_integration.services.github_services'
Ntp116
sI57
(S'/home/eahn/www.freedomsponsors.org/djangoproject/gh_frespo_integration/utils/github_adapter.py'
S'gh_frespo_integration.utils.github_adapter'
Ntp117
sI58
(S'/home/eahn/www.freedomsponsors.org/djangoproject/gh_frespo_integration/views/main_views.py'
S'gh_frespo_integration.views.main_views'
Ntp118
sI59
(S'/home/eahn/www.freedomsponsors.org/djangoproject/gh_frespo_integration/tests/test_github_adapter.py'
S'gh_frespo_integration.tests.test_github_adapter'
Ntp119
sI60
(S'/home/eahn/www.freedomsponsors.org/djangoproject/core_splinter_tests/tests/helpers/appdriver.py'
S'core_splinter_tests.tests.helpers.appdriver'
Ntp120
sI61
(S'/home/eahn/www.freedomsponsors.org/djangoproject/core_splinter_tests/tests/splintertests_comments.py'
S'core_splinter_tests.tests.splintertests_comments'
Ntp121
sI62
(S'/home/eahn/www.freedomsponsors.org/djangoproject/core_splinter_tests/tests/splintertests_issues.py'
S'core_splinter_tests.tests.splintertests_issues'
Ntp122
sI63
(S'/home/eahn/www.freedomsponsors.org/djangoproject/core_splinter_tests/tests/splintertests_payment.py'
S'core_splinter_tests.tests.splintertests_payment'
Ntp123
sI64
(S'/home/eahn/www.freedomsponsors.org/djangoproject/core_splinter_tests/tests/splintertests_users.py'
S'core_splinter_tests.tests.splintertests_users'
Ntp124
sI65
(S'/home/eahn/www.freedomsponsors.org/djangoproject/core_splinter_tests/tests/splintertests_comments.py'
S'core_splinter_tests.tests.splintertests_comments'
p125
S'SoloUserCommentTests.test_splinter_solo_comments'
tp126
sI66
(S'/home/eahn/www.freedomsponsors.org/djangoproject/core_splinter_tests/tests/splintertests_issues.py'
S'core_splinter_tests.tests.splintertests_issues'
p127
S'SecondUserIssueTests.test_splinter_sponsor_issue_HHH_1052'
tp128
sI67
(S'/home/eahn/www.freedomsponsors.org/djangoproject/core_splinter_tests/tests/splintertests_issues.py'
g127
S'SoloUserIssueTests.test_splinter_add_issue_HHH_1052'
tp129
sI68
(S'/home/eahn/www.freedomsponsors.org/djangoproject/core_splinter_tests/tests/splintertests_issues.py'
g127
S'SoloUserIssueTests.test_splinter_add_issue_HHH_1052_with_empty_db'
tp130
sI69
(S'/home/eahn/www.freedomsponsors.org/djangoproject/core_splinter_tests/tests/splintertests_issues.py'
g127
S'SoloUserIssueTests.test_splinter_add_issue_avulsa'
tp131
sI70
(S'/home/eahn/www.freedomsponsors.org/djangoproject/core_splinter_tests/tests/splintertests_issues.py'
g127
S'SoloUserIssueTests.test_splinter_add_issue_inexistent'
tp132
sI71
(S'/home/eahn/www.freedomsponsors.org/djangoproject/core_splinter_tests/tests/splintertests_issues.py'
g127
S'SoloUserIssueTests.test_splinter_add_issue_unreachable'
tp133
sI72
(S'/home/eahn/www.freedomsponsors.org/djangoproject/core_splinter_tests/tests/splintertests_issues.py'
g127
S'SoloUserIssueTests.test_splinter_edit_issue_HHH_1052'
tp134
sI73
(S'/home/eahn/www.freedomsponsors.org/djangoproject/core_splinter_tests/tests/splintertests_issues.py'
g127
S'SoloUserIssueTests.test_splinter_kickstart_jira_HHH0152_from_addNewIssuePage'
tp135
sI74
(S'/home/eahn/www.freedomsponsors.org/djangoproject/core_splinter_tests/tests/splintertests_issues.py'
g127
S'SoloUserIssueTests.test_splinter_login'
tp136
sI75
(S'/home/eahn/www.freedomsponsors.org/djangoproject/core_splinter_tests/tests/splintertests_issues.py'
g127
S'SoloUserIssueTests.test_splinter_sponsor_jira_HHH0152_from_plugin'
tp137
sI76
(S'/home/eahn/www.freedomsponsors.org/djangoproject/core_splinter_tests/tests/splintertests_payment.py'
S'core_splinter_tests.tests.splintertests_payment'
p138
S'PaymentTests.test_pay_with_paypal'
tp139
sI77
(S'/home/eahn/www.freedomsponsors.org/djangoproject/core_splinter_tests/tests/splintertests_users.py'
S'core_splinter_tests.tests.splintertests_users'
p140
S'AccountCreationTests.test_splinter_createaccount'
tp141
ss.